; Function Attrs: mustprogress uwtable
define hidden void @_ZN2cv11bioinspired17BasicRetinaFilter36runFilter_LocalAdapdation_autonomousERKSt8valarrayIfERS3_(ptr noundef nonnull align 8 captures(none) dereferenceable(168) initializes((156, 168)) %0, ptr noundef nonnull readonly align 8 captures(none) dereferenceable(16) %1, ptr noundef nonnull readonly align 8 captures(none) dereferenceable(16) %2) local_unnamed_addr #3 align 2 personality ptr @__gxx_personality_v0 {
  %4 = alloca %"class.cv::Range", align 4
  %5 = alloca %"class.cv::bioinspired::BasicRetinaFilter::Parallel_localAdaptation", align 8
  %6 = getelementptr inbounds nuw i8, ptr %1, i64 8
  %7 = load ptr, ptr %6, align 8, !tbaa !10
  %8 = getelementptr inbounds nuw i8, ptr %0, i64 16
  %9 = load ptr, ptr %8, align 8, !tbaa !10
  tail call void @_ZN2cv11bioinspired17BasicRetinaFilter23_spatiotemporalLPfilterEPKfPfj(ptr noundef nonnull align 8 dereferenceable(168) %0, ptr noundef %7, ptr noundef nonnull %9, i32 noundef 0)
  %10 = load ptr, ptr %6, align 8, !tbaa !10
  %11 = load ptr, ptr %8, align 8, !tbaa !10
  %12 = getelementptr inbounds nuw i8, ptr %2, i64 8
  %13 = load ptr, ptr %12, align 8, !tbaa !10
  %14 = getelementptr inbounds nuw i8, ptr %0, i64 48
  %15 = load i64, ptr %14, align 8, !tbaa !19
  %16 = trunc i64 %15 to i32
  %.not.i = icmp eq i32 %16, 0
  br i1 %.not.i, label %._crit_edge.i, label %.lr.ph.i

._crit_edge.i:                                    ; preds = %.lr.ph.i, %3
  %.0.lcssa.i = phi float [ 0.000000e+00, %3 ], [ %35, %.lr.ph.i ]
  %17 = uitofp i32 %16 to float
  %18 = fdiv float %.0.lcssa.i, %17
  %19 = getelementptr inbounds nuw i8, ptr %0, i64 148
  store float 1.000000e+00, ptr %19, align 4, !tbaa !68
  %20 = getelementptr inbounds nuw i8, ptr %0, i64 136
  %21 = load float, ptr %20, align 8, !tbaa !69
  %22 = fmul float %18, %21
  %23 = getelementptr inbounds nuw i8, ptr %0, i64 152
  store float %22, ptr %23, align 8, !tbaa !70
  call void @llvm.lifetime.start.p0(i64 8, ptr nonnull %4) #19
  store i32 0, ptr %4, align 4, !tbaa !71
  %24 = getelementptr inbounds nuw i8, ptr %4, i64 4
  store i32 %16, ptr %24, align 4, !tbaa !73
  call void @llvm.lifetime.start.p0(i64 48, ptr nonnull %5) #19
  %25 = getelementptr inbounds nuw i8, ptr %0, i64 140
  %26 = load float, ptr %25, align 4, !tbaa !25
  store ptr getelementptr inbounds nuw inrange(-16, 24) (i8, ptr @_ZTVN2cv11bioinspired17BasicRetinaFilter24Parallel_localAdaptationE, i64 16), ptr %5, align 8, !tbaa !13
  %27 = getelementptr inbounds nuw i8, ptr %5, i64 8
  store ptr %11, ptr %27, align 8, !tbaa !74
  %28 = getelementptr inbounds nuw i8, ptr %5, i64 16
  store ptr %10, ptr %28, align 8, !tbaa !77
  %29 = getelementptr inbounds nuw i8, ptr %5, i64 24
  store ptr %13, ptr %29, align 8, !tbaa !78
  %30 = getelementptr inbounds nuw i8, ptr %5, i64 32
  store float 1.000000e+00, ptr %30, align 8, !tbaa !79
  %31 = getelementptr inbounds nuw i8, ptr %5, i64 36
  store float %22, ptr %31, align 4, !tbaa !80
  %32 = getelementptr inbounds nuw i8, ptr %5, i64 40
  store float %26, ptr %32, align 8, !tbaa !81
  invoke void @_ZN2cv13parallel_for_ERKNS_5RangeERKNS_16ParallelLoopBodyEd(ptr noundef nonnull align 4 dereferenceable(8) %4, ptr noundef nonnull align 8 dereferenceable(8) %5, double noundef -1.000000e+00)
          to label %_ZN2cv11bioinspired17BasicRetinaFilter25_localLuminanceAdaptationEPKfS3_Pfb.exit unwind label %37

.lr.ph.i:                                         ; preds = %3, %.lr.ph.i
  %.017.i = phi float [ %35, %.lr.ph.i ], [ 0.000000e+00, %3 ]
  %.01316.i = phi ptr [ %33, %.lr.ph.i ], [ %10, %3 ]
  %.01415.i = phi i32 [ %36, %.lr.ph.i ], [ 0, %3 ]
  %33 = getelementptr inbounds nuw i8, ptr %.01316.i, i64 4
  %34 = load float, ptr %.01316.i, align 4, !tbaa !11
  %35 = fadd float %.017.i, %34
  %36 = add nuw i32 %.01415.i, 1
  %exitcond.not.i = icmp eq i32 %36, %16
  br i1 %exitcond.not.i, label %._crit_edge.i, label %.lr.ph.i, !llvm.loop !82

37:                                               ; preds = %._crit_edge.i
  %38 = landingpad { ptr, i32 }
          cleanup
  call void @_ZN2cv16ParallelLoopBodyD2Ev(ptr noundef nonnull align 8 dereferenceable(44) %5) #19
  call void @llvm.lifetime.end.p0(i64 48, ptr nonnull %5) #19
  call void @llvm.lifetime.end.p0(i64 8, ptr nonnull %4) #19
  resume { ptr, i32 } %38

_ZN2cv11bioinspired17BasicRetinaFilter25_localLuminanceAdaptationEPKfS3_Pfb.exit: ; preds = %._crit_edge.i
  call void @_ZN2cv16ParallelLoopBodyD2Ev(ptr noundef nonnull align 8 dereferenceable(44) %5) #19
  call void @llvm.lifetime.end.p0(i64 48, ptr nonnull %5) #19
  call void @llvm.lifetime.end.p0(i64 8, ptr nonnull %4) #19
  ret void
}